target datalayout = "e-m:e-p270:32:32-p271:32:32-p272:64:64-i64:64-i128:128-f80:128-n8:16:32:64-S128"
target triple = "x86_64-pc-linux-gnu"

%struct._fcgi_hash = type { [128 x ptr], ptr, ptr, ptr }
%struct._fcgi_hash_buckets = type { i32, ptr, [128 x %struct._fcgi_hash_bucket] }
%struct._fcgi_hash_bucket = type { i32, i32, ptr, i32, ptr, ptr, ptr }
%struct._fcgi_data_seg = type { ptr, ptr, ptr, [1 x i8] }

; Function Attrs: nounwind uwtable
define internal ptr @fcgi_hash_strndup(ptr noundef %0, ptr noundef %1, i32 noundef %2) #0 {
  %4 = alloca ptr, align 8
  %5 = alloca ptr, align 8
  %6 = alloca i32, align 4
  %7 = alloca ptr, align 8
  %8 = alloca i32, align 4
  %9 = alloca ptr, align 8
  store ptr %0, ptr %4, align 8
  store ptr %1, ptr %5, align 8
  store i32 %2, ptr %6, align 4
  %10 = load ptr, ptr %4, align 8
  %11 = getelementptr inbounds %struct._fcgi_hash, ptr %10, i32 0, i32 3
  %12 = load ptr, ptr %11, align 8
  %13 = getelementptr inbounds %struct._fcgi_data_seg, ptr %12, i32 0, i32 0
  %14 = load ptr, ptr %13, align 8
  %15 = load i32, ptr %6, align 4
  %16 = zext i32 %15 to i64
  %17 = getelementptr inbounds i8, ptr %14, i64 %16
  %18 = getelementptr inbounds i8, ptr %17, i64 1
  %19 = load ptr, ptr %4, align 8
  %20 = getelementptr inbounds %struct._fcgi_hash, ptr %19, i32 0, i32 3
  %21 = load ptr, ptr %20, align 8
  %22 = getelementptr inbounds %struct._fcgi_data_seg, ptr %21, i32 0, i32 1
  %23 = load ptr, ptr %22, align 8
  %24 = icmp uge ptr %18, %23
  %25 = xor i1 %24, true
  %26 = xor i1 %25, true
  %27 = zext i1 %26 to i32
  %28 = sext i32 %27 to i64
  %29 = icmp ne i64 %28, 0
  br i1 %29, label %30, label %65

30:                                               ; preds = %3
  %31 = load i32, ptr %6, align 4
  %32 = add i32 %31, 1
  %33 = icmp ugt i32 %32, 4096
  br i1 %33, label %34, label %37

34:                                               ; preds = %30
  %35 = load i32, ptr %6, align 4
  %36 = add i32 %35, 1
  br label %38

37:                                               ; preds = %30
  br label %38

38:                                               ; preds = %37, %34
  %39 = phi i32 [ %36, %34 ], [ 4096, %37 ]
  store i32 %39, ptr %8, align 4
  %40 = load i32, ptr %8, align 4
  %41 = zext i32 %40 to i64
  %42 = add i64 31, %41
  %43 = call noalias ptr @malloc(i64 noundef %42) #15
  store ptr %43, ptr %9, align 8
  %44 = load ptr, ptr %9, align 8
  %45 = getelementptr inbounds %struct._fcgi_data_seg, ptr %44, i32 0, i32 3
  %46 = getelementptr inbounds [1 x i8], ptr %45, i64 0, i64 0
  %47 = load ptr, ptr %9, align 8
  %48 = getelementptr inbounds %struct._fcgi_data_seg, ptr %47, i32 0, i32 0
  store ptr %46, ptr %48, align 8
  %49 = load ptr, ptr %9, align 8
  %50 = getelementptr inbounds %struct._fcgi_data_seg, ptr %49, i32 0, i32 0
  %51 = load ptr, ptr %50, align 8
  %52 = load i32, ptr %8, align 4
  %53 = zext i32 %52 to i64
  %54 = getelementptr inbounds i8, ptr %51, i64 %53
  %55 = load ptr, ptr %9, align 8
  %56 = getelementptr inbounds %struct._fcgi_data_seg, ptr %55, i32 0, i32 1
  store ptr %54, ptr %56, align 8
  %57 = load ptr, ptr %4, align 8
  %58 = getelementptr inbounds %struct._fcgi_hash, ptr %57, i32 0, i32 3
  %59 = load ptr, ptr %58, align 8
  %60 = load ptr, ptr %9, align 8
  %61 = getelementptr inbounds %struct._fcgi_data_seg, ptr %60, i32 0, i32 2
  store ptr %59, ptr %61, align 8
  %62 = load ptr, ptr %9, align 8
  %63 = load ptr, ptr %4, align 8
  %64 = getelementptr inbounds %struct._fcgi_hash, ptr %63, i32 0, i32 3
  store ptr %62, ptr %64, align 8
  br label %65

65:                                               ; preds = %38, %3
  %66 = load ptr, ptr %4, align 8
  %67 = getelementptr inbounds %struct._fcgi_hash, ptr %66, i32 0, i32 3
  %68 = load ptr, ptr %67, align 8
  %69 = getelementptr inbounds %struct._fcgi_data_seg, ptr %68, i32 0, i32 0
  %70 = load ptr, ptr %69, align 8
  store ptr %70, ptr %7, align 8
  %71 = load ptr, ptr %7, align 8
  %72 = load ptr, ptr %5, align 8
  %73 = load i32, ptr %6, align 4
  %74 = zext i32 %73 to i64
  call void @llvm.memcpy.p0.p0.i64(ptr align 1 %71, ptr align 1 %72, i64 %74, i1 false)
  %75 = load ptr, ptr %7, align 8
  %76 = load i32, ptr %6, align 4
  %77 = zext i32 %76 to i64
  %78 = getelementptr inbounds i8, ptr %75, i64 %77
  store i8 0, ptr %78, align 1
  %79 = load i32, ptr %6, align 4
  %80 = add i32 %79, 1
  %81 = load ptr, ptr %4, align 8
  %82 = getelementptr inbounds %struct._fcgi_hash, ptr %81, i32 0, i32 3
  %83 = load ptr, ptr %82, align 8
  %84 = getelementptr inbounds %struct._fcgi_data_seg, ptr %83, i32 0, i32 0
  %85 = load ptr, ptr %84, align 8
  %86 = zext i32 %80 to i64
  %87 = getelementptr inbounds i8, ptr %85, i64 %86
  store ptr %87, ptr %84, align 8
  %88 = load ptr, ptr %7, align 8
  ret ptr %88
}

; Function Attrs: nounwind uwtable
define internal ptr @fcgi_hash_set(ptr noundef %0, i32 noundef %1, ptr noundef %2, i32 noundef %3, ptr noundef %4, i32 noundef %5) #0 {
  %7 = alloca ptr, align 8
  %8 = alloca ptr, align 8
  %9 = alloca i32, align 4
  %10 = alloca ptr, align 8
  %11 = alloca i32, align 4
  %12 = alloca ptr, align 8
  %13 = alloca i32, align 4
  %14 = alloca i32, align 4
  %15 = alloca ptr, align 8
  %16 = alloca ptr, align 8
  store ptr %0, ptr %8, align 8
  store i32 %1, ptr %9, align 4
  store ptr %2, ptr %10, align 8
  store i32 %3, ptr %11, align 4
  store ptr %4, ptr %12, align 8
  store i32 %5, ptr %13, align 4
  %17 = load i32, ptr %9, align 4
  %18 = and i32 %17, 127
  store i32 %18, ptr %14, align 4
  %19 = load ptr, ptr %8, align 8
  %20 = getelementptr inbounds %struct._fcgi_hash, ptr %19, i32 0, i32 0
  %21 = load i32, ptr %14, align 4
  %22 = zext i32 %21 to i64
  %23 = getelementptr inbounds [128 x ptr], ptr %20, i64 0, i64 %22
  %24 = load ptr, ptr %23, align 8
  store ptr %24, ptr %15, align 8
  br label %25

25:                                               ; preds = %72, %6
  %26 = load ptr, ptr %15, align 8
  %27 = icmp ne ptr %26, null
  %28 = xor i1 %27, true
  %29 = xor i1 %28, true
  %30 = zext i1 %29 to i32
  %31 = sext i32 %30 to i64
  %32 = icmp ne i64 %31, 0
  br i1 %32, label %33, label %76

33:                                               ; preds = %25
  %34 = load ptr, ptr %15, align 8
  %35 = getelementptr inbounds %struct._fcgi_hash_bucket, ptr %34, i32 0, i32 0
  %36 = load i32, ptr %35, align 8
  %37 = load i32, ptr %9, align 4
  %38 = icmp eq i32 %36, %37
  %39 = xor i1 %38, true
  %40 = xor i1 %39, true
  %41 = zext i1 %40 to i32
  %42 = sext i32 %41 to i64
  %43 = icmp ne i64 %42, 0
  br i1 %43, label %44, label %72

44:                                               ; preds = %33
  %45 = load ptr, ptr %15, align 8
  %46 = getelementptr inbounds %struct._fcgi_hash_bucket, ptr %45, i32 0, i32 1
  %47 = load i32, ptr %46, align 4
  %48 = load i32, ptr %11, align 4
  %49 = icmp eq i32 %47, %48
  br i1 %49, label %50, label %72

50:                                               ; preds = %44
  %51 = load ptr, ptr %15, align 8
  %52 = getelementptr inbounds %struct._fcgi_hash_bucket, ptr %51, i32 0, i32 2
  %53 = load ptr, ptr %52, align 8
  %54 = load ptr, ptr %10, align 8
  %55 = load i32, ptr %11, align 4
  %56 = zext i32 %55 to i64
  %57 = call i32 @memcmp(ptr noundef %53, ptr noundef %54, i64 noundef %56) #16
  %58 = icmp eq i32 %57, 0
  br i1 %58, label %59, label %72

59:                                               ; preds = %50
  %60 = load i32, ptr %13, align 4
  %61 = load ptr, ptr %15, align 8
  %62 = getelementptr inbounds %struct._fcgi_hash_bucket, ptr %61, i32 0, i32 3
  store i32 %60, ptr %62, align 8
  %63 = load ptr, ptr %8, align 8
  %64 = load ptr, ptr %12, align 8
  %65 = load i32, ptr %13, align 4
  %66 = call ptr @fcgi_hash_strndup(ptr noundef %63, ptr noundef %64, i32 noundef %65)
  %67 = load ptr, ptr %15, align 8
  %68 = getelementptr inbounds %struct._fcgi_hash_bucket, ptr %67, i32 0, i32 4
  store ptr %66, ptr %68, align 8
  %69 = load ptr, ptr %15, align 8
  %70 = getelementptr inbounds %struct._fcgi_hash_bucket, ptr %69, i32 0, i32 4
  %71 = load ptr, ptr %70, align 8
  store ptr %71, ptr %7, align 8
  br label %165

72:                                               ; preds = %50, %44, %33
  %73 = load ptr, ptr %15, align 8
  %74 = getelementptr inbounds %struct._fcgi_hash_bucket, ptr %73, i32 0, i32 5
  %75 = load ptr, ptr %74, align 8
  store ptr %75, ptr %15, align 8
  br label %25

76:                                               ; preds = %25
  %77 = load ptr, ptr %8, align 8
  %78 = getelementptr inbounds %struct._fcgi_hash, ptr %77, i32 0, i32 2
  %79 = load ptr, ptr %78, align 8
  %80 = getelementptr inbounds %struct._fcgi_hash_buckets, ptr %79, i32 0, i32 0
  %81 = load i32, ptr %80, align 8
  %82 = icmp uge i32 %81, 128
  %83 = xor i1 %82, true
  %84 = xor i1 %83, true
  %85 = zext i1 %84 to i32
  %86 = sext i32 %85 to i64
  %87 = icmp ne i64 %86, 0
  br i1 %87, label %88, label %100

88:                                               ; preds = %76
  %89 = call noalias ptr @malloc(i64 noundef 6160) #15
  store ptr %89, ptr %16, align 8
  %90 = load ptr, ptr %16, align 8
  %91 = getelementptr inbounds %struct._fcgi_hash_buckets, ptr %90, i32 0, i32 0
  store i32 0, ptr %91, align 8
  %92 = load ptr, ptr %8, align 8
  %93 = getelementptr inbounds %struct._fcgi_hash, ptr %92, i32 0, i32 2
  %94 = load ptr, ptr %93, align 8
  %95 = load ptr, ptr %16, align 8
  %96 = getelementptr inbounds %struct._fcgi_hash_buckets, ptr %95, i32 0, i32 1
  store ptr %94, ptr %96, align 8
  %97 = load ptr, ptr %16, align 8
  %98 = load ptr, ptr %8, align 8
  %99 = getelementptr inbounds %struct._fcgi_hash, ptr %98, i32 0, i32 2
  store ptr %97, ptr %99, align 8
  br label %100

100:                                              ; preds = %88, %76
  %101 = load ptr, ptr %8, align 8
  %102 = getelementptr inbounds %struct._fcgi_hash, ptr %101, i32 0, i32 2
  %103 = load ptr, ptr %102, align 8
  %104 = getelementptr inbounds %struct._fcgi_hash_buckets, ptr %103, i32 0, i32 2
  %105 = getelementptr inbounds [128 x %struct._fcgi_hash_bucket], ptr %104, i64 0, i64 0
  %106 = load ptr, ptr %8, align 8
  %107 = getelementptr inbounds %struct._fcgi_hash, ptr %106, i32 0, i32 2
  %108 = load ptr, ptr %107, align 8
  %109 = getelementptr inbounds %struct._fcgi_hash_buckets, ptr %108, i32 0, i32 0
  %110 = load i32, ptr %109, align 8
  %111 = zext i32 %110 to i64
  %112 = getelementptr inbounds %struct._fcgi_hash_bucket, ptr %105, i64 %111
  store ptr %112, ptr %15, align 8
  %113 = load ptr, ptr %8, align 8
  %114 = getelementptr inbounds %struct._fcgi_hash, ptr %113, i32 0, i32 2
  %115 = load ptr, ptr %114, align 8
  %116 = getelementptr inbounds %struct._fcgi_hash_buckets, ptr %115, i32 0, i32 0
  %117 = load i32, ptr %116, align 8
  %118 = add i32 %117, 1
  store i32 %118, ptr %116, align 8
  %119 = load ptr, ptr %8, align 8
  %120 = getelementptr inbounds %struct._fcgi_hash, ptr %119, i32 0, i32 0
  %121 = load i32, ptr %14, align 4
  %122 = zext i32 %121 to i64
  %123 = getelementptr inbounds [128 x ptr], ptr %120, i64 0, i64 %122
  %124 = load ptr, ptr %123, align 8
  %125 = load ptr, ptr %15, align 8
  %126 = getelementptr inbounds %struct._fcgi_hash_bucket, ptr %125, i32 0, i32 5
  store ptr %124, ptr %126, align 8
  %127 = load ptr, ptr %15, align 8
  %128 = load ptr, ptr %8, align 8
  %129 = getelementptr inbounds %struct._fcgi_hash, ptr %128, i32 0, i32 0
  %130 = load i32, ptr %14, align 4
  %131 = zext i32 %130 to i64
  %132 = getelementptr inbounds [128 x ptr], ptr %129, i64 0, i64 %131
  store ptr %127, ptr %132, align 8
  %133 = load ptr, ptr %8, align 8
  %134 = getelementptr inbounds %struct._fcgi_hash, ptr %133, i32 0, i32 1
  %135 = load ptr, ptr %134, align 8
  %136 = load ptr, ptr %15, align 8
  %137 = getelementptr inbounds %struct._fcgi_hash_bucket, ptr %136, i32 0, i32 6
  store ptr %135, ptr %137, align 8
  %138 = load ptr, ptr %15, align 8
  %139 = load ptr, ptr %8, align 8
  %140 = getelementptr inbounds %struct._fcgi_hash, ptr %139, i32 0, i32 1
  store ptr %138, ptr %140, align 8
  %141 = load i32, ptr %9, align 4
  %142 = load ptr, ptr %15, align 8
  %143 = getelementptr inbounds %struct._fcgi_hash_bucket, ptr %142, i32 0, i32 0
  store i32 %141, ptr %143, align 8
  %144 = load i32, ptr %11, align 4
  %145 = load ptr, ptr %15, align 8
  %146 = getelementptr inbounds %struct._fcgi_hash_bucket, ptr %145, i32 0, i32 1
  store i32 %144, ptr %146, align 4
  %147 = load ptr, ptr %8, align 8
  %148 = load ptr, ptr %10, align 8
  %149 = load i32, ptr %11, align 4
  %150 = call ptr @fcgi_hash_strndup(ptr noundef %147, ptr noundef %148, i32 noundef %149)
  %151 = load ptr, ptr %15, align 8
  %152 = getelementptr inbounds %struct._fcgi_hash_bucket, ptr %151, i32 0, i32 2
  store ptr %150, ptr %152, align 8
  %153 = load i32, ptr %13, align 4
  %154 = load ptr, ptr %15, align 8
  %155 = getelementptr inbounds %struct._fcgi_hash_bucket, ptr %154, i32 0, i32 3
  store i32 %153, ptr %155, align 8
  %156 = load ptr, ptr %8, align 8
  %157 = load ptr, ptr %12, align 8
  %158 = load i32, ptr %13, align 4
  %159 = call ptr @fcgi_hash_strndup(ptr noundef %156, ptr noundef %157, i32 noundef %158)
  %160 = load ptr, ptr %15, align 8
  %161 = getelementptr inbounds %struct._fcgi_hash_bucket, ptr %160, i32 0, i32 4
  store ptr %159, ptr %161, align 8
  %162 = load ptr, ptr %15, align 8
  %163 = getelementptr inbounds %struct._fcgi_hash_bucket, ptr %162, i32 0, i32 4
  %164 = load ptr, ptr %163, align 8
  store ptr %164, ptr %7, align 8
  br label %165

165:                                              ; preds = %100, %59
  %166 = load ptr, ptr %7, align 8
  ret ptr %166
}