; Function Attrs: nofree nounwind uwtable
define internal fastcc ptr @fcgi_hash_set(ptr nocapture noundef %0, i32 noundef %1, ptr nocapture noundef readonly %2, i32 noundef %3, ptr nocapture noundef readonly %4, i32 noundef %5) unnamed_addr #22 {
  %7 = and i32 %1, 127
  %8 = zext nneg i32 %7 to i64
  %9 = getelementptr inbounds [128 x ptr], ptr %0, i64 0, i64 %8
  %.05362 = load ptr, ptr %9, align 8
  %.not63 = icmp eq ptr %.05362, null
  br i1 %.not63, label %._crit_edge, label %.lr.ph

.lr.ph:                                           ; preds = %6
  %10 = zext i32 %3 to i64
  br label %11

11:                                               ; preds = %.lr.ph, %43
  %.05364 = phi ptr [ %.05362, %.lr.ph ], [ %.053, %43 ]
  %12 = load i32, ptr %.05364, align 8
  %13 = icmp eq i32 %12, %1
  br i1 %13, label %14, label %43

14:                                               ; preds = %11
  %15 = getelementptr inbounds i8, ptr %.05364, i64 4
  %16 = load i32, ptr %15, align 4
  %17 = icmp eq i32 %16, %3
  br i1 %17, label %18, label %43

18:                                               ; preds = %14
  %19 = getelementptr inbounds i8, ptr %.05364, i64 8
  %20 = load ptr, ptr %19, align 8
  %bcmp = tail call i32 @bcmp(ptr %20, ptr %2, i64 %10)
  %21 = icmp eq i32 %bcmp, 0
  br i1 %21, label %22, label %43

22:                                               ; preds = %18
  %23 = getelementptr inbounds i8, ptr %.05364, i64 16
  store i32 %5, ptr %23, align 8
  %24 = getelementptr inbounds i8, ptr %0, i64 1040
  %25 = load ptr, ptr %24, align 8
  %26 = load ptr, ptr %25, align 8
  %27 = zext i32 %5 to i64
  %28 = getelementptr inbounds i8, ptr %26, i64 %27
  %29 = getelementptr inbounds i8, ptr %28, i64 1
  %30 = getelementptr inbounds i8, ptr %25, i64 8
  %31 = load ptr, ptr %30, align 8
  %.not.i = icmp ult ptr %29, %31
  %.pre.i = add i32 %5, 1
  br i1 %.not.i, label %fcgi_hash_strndup.exit, label %32

32:                                               ; preds = %22
  %33 = tail call i32 @llvm.umax.i32(i32 %.pre.i, i32 4096)
  %34 = zext i32 %33 to i64
  %35 = add nuw nsw i64 %34, 31
  %36 = tail call noalias ptr @malloc(i64 noundef %35) #33
  %37 = getelementptr inbounds i8, ptr %36, i64 24
  store ptr %37, ptr %36, align 8
  %38 = getelementptr inbounds i8, ptr %37, i64 %34
  %39 = getelementptr inbounds i8, ptr %36, i64 8
  store ptr %38, ptr %39, align 8
  %40 = getelementptr inbounds i8, ptr %36, i64 16
  store ptr %25, ptr %40, align 8
  store ptr %36, ptr %24, align 8
  br label %fcgi_hash_strndup.exit

fcgi_hash_strndup.exit:                           ; preds = %22, %32
  %41 = phi ptr [ %37, %32 ], [ %26, %22 ]
  tail call void @llvm.memcpy.p0.p0.i64(ptr align 1 %41, ptr align 1 %4, i64 %27, i1 false)
  %42 = getelementptr inbounds i8, ptr %41, i64 %27
  br label %108

43:                                               ; preds = %18, %14, %11
  %44 = getelementptr inbounds i8, ptr %.05364, i64 32
  %.053 = load ptr, ptr %44, align 8
  %.not = icmp eq ptr %.053, null
  br i1 %.not, label %._crit_edge, label %11

._crit_edge:                                      ; preds = %43, %6
  %45 = getelementptr inbounds i8, ptr %0, i64 1032
  %46 = load ptr, ptr %45, align 8
  %47 = load i32, ptr %46, align 8
  %48 = icmp ugt i32 %47, 127
  br i1 %48, label %49, label %52

49:                                               ; preds = %._crit_edge
  %50 = tail call noalias dereferenceable_or_null(6160) ptr @malloc(i64 noundef 6160) #33
  store i32 0, ptr %50, align 8
  %51 = getelementptr inbounds i8, ptr %50, i64 8
  store ptr %46, ptr %51, align 8
  store ptr %50, ptr %45, align 8
  br label %52

52:                                               ; preds = %49, %._crit_edge
  %53 = phi i32 [ 0, %49 ], [ %47, %._crit_edge ]
  %54 = phi ptr [ %50, %49 ], [ %46, %._crit_edge ]
  %55 = getelementptr inbounds i8, ptr %54, i64 16
  %56 = zext nneg i32 %53 to i64
  %57 = getelementptr inbounds %struct._fcgi_hash_bucket, ptr %55, i64 %56
  %58 = add nuw nsw i32 %53, 1
  store i32 %58, ptr %54, align 8
  %59 = load ptr, ptr %9, align 8
  %60 = getelementptr inbounds i8, ptr %57, i64 32
  store ptr %59, ptr %60, align 8
  store ptr %57, ptr %9, align 8
  %61 = getelementptr inbounds i8, ptr %0, i64 1024
  %62 = load ptr, ptr %61, align 8
  %63 = getelementptr inbounds i8, ptr %57, i64 40
  store ptr %62, ptr %63, align 8
  store ptr %57, ptr %61, align 8
  store i32 %1, ptr %57, align 8
  %64 = getelementptr inbounds i8, ptr %57, i64 4
  store i32 %3, ptr %64, align 4
  %65 = getelementptr inbounds i8, ptr %0, i64 1040
  %66 = load ptr, ptr %65, align 8
  %67 = load ptr, ptr %66, align 8
  %68 = zext i32 %3 to i64
  %69 = getelementptr inbounds i8, ptr %67, i64 %68
  %70 = getelementptr inbounds i8, ptr %69, i64 1
  %71 = getelementptr inbounds i8, ptr %66, i64 8
  %72 = load ptr, ptr %71, align 8
  %.not.i55 = icmp ult ptr %70, %72
  %.pre.i56 = add i32 %3, 1
  br i1 %.not.i55, label %fcgi_hash_strndup.exit57, label %73

73:                                               ; preds = %52
  %74 = tail call i32 @llvm.umax.i32(i32 %.pre.i56, i32 4096)
  %75 = zext i32 %74 to i64
  %76 = add nuw nsw i64 %75, 31
  %77 = tail call noalias ptr @malloc(i64 noundef %76) #33
  %78 = getelementptr inbounds i8, ptr %77, i64 24
  store ptr %78, ptr %77, align 8
  %79 = getelementptr inbounds i8, ptr %78, i64 %75
  %80 = getelementptr inbounds i8, ptr %77, i64 8
  store ptr %79, ptr %80, align 8
  %81 = getelementptr inbounds i8, ptr %77, i64 16
  store ptr %66, ptr %81, align 8
  store ptr %77, ptr %65, align 8
  br label %fcgi_hash_strndup.exit57

fcgi_hash_strndup.exit57:                         ; preds = %52, %73
  %82 = phi ptr [ %78, %73 ], [ %67, %52 ]
  tail call void @llvm.memcpy.p0.p0.i64(ptr align 1 %82, ptr align 1 %2, i64 %68, i1 false)
  %83 = getelementptr inbounds i8, ptr %82, i64 %68
  store i8 0, ptr %83, align 1
  %84 = load ptr, ptr %65, align 8
  %85 = load ptr, ptr %84, align 8
  %86 = zext i32 %.pre.i56 to i64
  %87 = getelementptr inbounds i8, ptr %85, i64 %86
  store ptr %87, ptr %84, align 8
  %88 = getelementptr inbounds i8, ptr %57, i64 8
  store ptr %82, ptr %88, align 8
  %89 = getelementptr inbounds i8, ptr %57, i64 16
  store i32 %5, ptr %89, align 8
  %90 = load ptr, ptr %65, align 8
  %91 = load ptr, ptr %90, align 8
  %92 = zext i32 %5 to i64
  %93 = getelementptr inbounds i8, ptr %91, i64 %92
  %94 = getelementptr inbounds i8, ptr %93, i64 1
  %95 = getelementptr inbounds i8, ptr %90, i64 8
  %96 = load ptr, ptr %95, align 8
  %.not.i58 = icmp ult ptr %94, %96
  %.pre.i59 = add i32 %5, 1
  br i1 %.not.i58, label %fcgi_hash_strndup.exit60, label %97

97:                                               ; preds = %fcgi_hash_strndup.exit57
  %98 = tail call i32 @llvm.umax.i32(i32 %.pre.i59, i32 4096)
  %99 = zext i32 %98 to i64
  %100 = add nuw nsw i64 %99, 31
  %101 = tail call noalias ptr @malloc(i64 noundef %100) #33
  %102 = getelementptr inbounds i8, ptr %101, i64 24
  store ptr %102, ptr %101, align 8
  %103 = getelementptr inbounds i8, ptr %102, i64 %99
  %104 = getelementptr inbounds i8, ptr %101, i64 8
  store ptr %103, ptr %104, align 8
  %105 = getelementptr inbounds i8, ptr %101, i64 16
  store ptr %90, ptr %105, align 8
  store ptr %101, ptr %65, align 8
  br label %fcgi_hash_strndup.exit60

fcgi_hash_strndup.exit60:                         ; preds = %fcgi_hash_strndup.exit57, %97
  %106 = phi ptr [ %102, %97 ], [ %91, %fcgi_hash_strndup.exit57 ]
  tail call void @llvm.memcpy.p0.p0.i64(ptr align 1 %106, ptr align 1 %4, i64 %92, i1 false)
  %107 = getelementptr inbounds i8, ptr %106, i64 %92
  br label %108

108:                                              ; preds = %fcgi_hash_strndup.exit60, %fcgi_hash_strndup.exit
  %.sink75 = phi ptr [ %107, %fcgi_hash_strndup.exit60 ], [ %42, %fcgi_hash_strndup.exit ]
  %.sink74 = phi ptr [ %65, %fcgi_hash_strndup.exit60 ], [ %24, %fcgi_hash_strndup.exit ]
  %.pre.i59.sink = phi i32 [ %.pre.i59, %fcgi_hash_strndup.exit60 ], [ %.pre.i, %fcgi_hash_strndup.exit ]
  %.sink68 = phi ptr [ %57, %fcgi_hash_strndup.exit60 ], [ %.05364, %fcgi_hash_strndup.exit ]
  %.sink = phi ptr [ %106, %fcgi_hash_strndup.exit60 ], [ %41, %fcgi_hash_strndup.exit ]
  store i8 0, ptr %.sink75, align 1
  %109 = load ptr, ptr %.sink74, align 8
  %110 = load ptr, ptr %109, align 8
  %111 = zext i32 %.pre.i59.sink to i64
  %112 = getelementptr inbounds i8, ptr %110, i64 %111
  store ptr %112, ptr %109, align 8
  %113 = getelementptr inbounds i8, ptr %.sink68, i64 24
  store ptr %.sink, ptr %113, align 8
  ret ptr %.sink
}